target datalayout = "e-m:e-p270:32:32-p271:32:32-p272:64:64-i64:64-i128:128-f80:128-n8:16:32:64-S128"
target triple = "x86_64-pc-linux-gnu"

@.str.1 = private unnamed_addr constant [4 x i8] c"%s\0A\00", align 1
@.str.2 = private unnamed_addr constant [7 x i8] c"%s=%s\0A\00", align 1

; Function Attrs: nounwind uwtable
define internal i32 @show_config(ptr noundef %0, ptr noundef %1, ptr noundef %2, ptr noundef %3) #0 {
  %5 = alloca ptr, align 8
  %6 = alloca ptr, align 8
  %7 = alloca ptr, align 8
  %8 = alloca ptr, align 8
  store ptr %0, ptr %5, align 8, !tbaa !11
  store ptr %1, ptr %6, align 8, !tbaa !11
  store ptr %2, ptr %7, align 8, !tbaa !20
  store ptr %3, ptr %8, align 8, !tbaa !19
  %9 = load ptr, ptr %6, align 8, !tbaa !11
  %10 = icmp ne ptr %9, null
  br i1 %10, label %11, label %15

11:                                               ; preds = %4
  %12 = load ptr, ptr %5, align 8, !tbaa !11
  %13 = load ptr, ptr %6, align 8, !tbaa !11
  %14 = call i32 (ptr, ...) @printf(ptr noundef @.str.2, ptr noundef %12, ptr noundef %13)
  br label %18

15:                                               ; preds = %4
  %16 = load ptr, ptr %5, align 8, !tbaa !11
  %17 = call i32 (ptr, ...) @printf(ptr noundef @.str.1, ptr noundef %16)
  br label %18

18:                                               ; preds = %15, %11
  %19 = load ptr, ptr %5, align 8, !tbaa !11
  %20 = load ptr, ptr %6, align 8, !tbaa !11
  %21 = load ptr, ptr %7, align 8, !tbaa !20
  %22 = load ptr, ptr %8, align 8, !tbaa !19
  %23 = call i32 @git_default_config(ptr noundef %19, ptr noundef %20, ptr noundef %21, ptr noundef %22)
  ret i32 %23
}