; Function Attrs: nounwind uwtable
define internal i32 @show_config(ptr noundef %0, ptr noundef %1, ptr noundef %2, ptr noundef %3) #0 {
  %.not = icmp eq ptr %1, null
  br i1 %.not, label %7, label %5

5:                                                ; preds = %4
  %6 = tail call i32 (ptr, ...) @printf(ptr noundef nonnull dereferenceable(1) @.str.2, ptr noundef %0, ptr noundef nonnull %1)
  br label %8

7:                                                ; preds = %4
  %puts = tail call i32 @puts(ptr nonnull dereferenceable(1) %0)
  br label %8

8:                                                ; preds = %7, %5
  %9 = tail call i32 @git_default_config(ptr noundef %0, ptr noundef %1, ptr noundef %2, ptr noundef %3) #10
  ret i32 %9
}